target datalayout = "e-m:e-p270:32:32-p271:32:32-p272:64:64-i64:64-i128:128-f80:128-n8:16:32:64-S128"
target triple = "x86_64-unknown-linux-gnu"

%class.params_ref = type { ptr }
%"class.euf::completion" = type <{ %class.dependent_expr_simplifier, %"class.euf::egraph", ptr, ptr, %class.ptr_vector.9, %class.ptr_vector.7, %class.ptr_vector.7, %class.ptr_vector.7, %class.ref_vector, %class.ref_vector, %class.ref_vector.32, i32, [4 x i8], %class.svector.5, %class.th_rewriter, %"struct.euf::completion::stats", i8, [3 x i8] }>
%class.dependent_expr_simplifier = type { ptr, ptr, ptr, ptr }
%"class.euf::egraph" = type { ptr, %class.svector, %"class.euf::etable", %class.region, %class.scoped_ptr_vector, %class.svector.3, %class.svector.5, %class.ptr_vector.7, ptr, ptr, i32, %class.tmp_app, %class.ptr_vector.7, %class.ref_vector, %class.ref_vector.11, %class.vector.16, %class.ptr_vector.7, i32, i8, ptr, ptr, %"class.euf::justification", i32, %class.svector.18, %class.svector.20, %class.ptr_vector.7, %"struct.euf::egraph::stats", i8, i8, i64, %"class.std::vector", %"class.std::function", %"class.std::function.22", %"class.std::function.24", %"class.std::function.26", %"class.std::function.29" }
%class.svector = type { %class.vector }
%class.vector = type { ptr }
%"class.euf::etable" = type { ptr, i8, %class.ptr_vector, %class.map }
%class.ptr_vector = type { %class.vector.0 }
%class.vector.0 = type { ptr }
%class.map = type { %class.table2map }
%class.table2map = type { %class.core_hashtable }
%class.core_hashtable = type <{ ptr, i32, i32, i32, [4 x i8] }>
%class.region = type { ptr, ptr, ptr, ptr, ptr }
%class.scoped_ptr_vector = type { %class.ptr_vector.1 }
%class.ptr_vector.1 = type { %class.vector.2 }
%class.vector.2 = type { ptr }
%class.svector.3 = type { %class.vector.4 }
%class.vector.4 = type { ptr }
%class.tmp_app = type { i32, ptr }
%class.ref_vector.11 = type { %class.ref_vector_core.12 }
%class.ref_vector_core.12 = type { %class.ref_manager_wrapper.13, %class.ptr_vector.14 }
%class.ref_manager_wrapper.13 = type { ptr }
%class.ptr_vector.14 = type { %class.vector.15 }
%class.vector.15 = type { ptr }
%class.vector.16 = type { ptr }
%"class.euf::justification" = type { i32, %union.anon, %union.anon.17 }
%union.anon = type { ptr }
%union.anon.17 = type { ptr }
%class.svector.18 = type { %class.vector.19 }
%class.vector.19 = type { ptr }
%class.svector.20 = type { %class.vector.21 }
%class.vector.21 = type { ptr }
%"struct.euf::egraph::stats" = type { i32, i32, i32, i32, i32, i32 }
%"class.std::vector" = type { %"struct.std::_Vector_base" }
%"struct.std::_Vector_base" = type { %"struct.std::_Vector_base<std::function<void (euf::enode *, euf::enode *)>, std::allocator<std::function<void (euf::enode *, euf::enode *)>>>::_Vector_impl" }
%"struct.std::_Vector_base<std::function<void (euf::enode *, euf::enode *)>, std::allocator<std::function<void (euf::enode *, euf::enode *)>>>::_Vector_impl" = type { %"struct.std::_Vector_base<std::function<void (euf::enode *, euf::enode *)>, std::allocator<std::function<void (euf::enode *, euf::enode *)>>>::_Vector_impl_data" }
%"struct.std::_Vector_base<std::function<void (euf::enode *, euf::enode *)>, std::allocator<std::function<void (euf::enode *, euf::enode *)>>>::_Vector_impl_data" = type { ptr, ptr, ptr }
%"class.std::function" = type { %"class.std::_Function_base", ptr }
%"class.std::_Function_base" = type { %"union.std::_Any_data", ptr }
%"union.std::_Any_data" = type { %"union.std::_Nocopy_types" }
%"union.std::_Nocopy_types" = type { { i64, i64 } }
%"class.std::function.22" = type { %"class.std::_Function_base", ptr }
%"class.std::function.24" = type { %"class.std::_Function_base", ptr }
%"class.std::function.26" = type { %"class.std::_Function_base", ptr }
%"class.std::function.29" = type { %"class.std::_Function_base", ptr }
%class.ptr_vector.9 = type { %class.vector.10 }
%class.vector.10 = type { ptr }
%class.ptr_vector.7 = type { %class.vector.8 }
%class.vector.8 = type { ptr }
%class.ref_vector = type { %class.ref_vector_core }
%class.ref_vector_core = type { %class.ref_manager_wrapper, %class.ptr_vector.9 }
%class.ref_manager_wrapper = type { ptr }
%class.ref_vector.32 = type { %class.ref_vector_core.33 }
%class.ref_vector_core.33 = type { %class.ref_manager_wrapper.34, %class.ptr_vector.35 }
%class.ref_manager_wrapper.34 = type { ptr }
%class.ptr_vector.35 = type { %class.vector.36 }
%class.vector.36 = type { ptr }
%class.svector.5 = type { %class.vector.6 }
%class.vector.6 = type { ptr }
%class.th_rewriter = type { ptr, %class.params_ref }
%"struct.euf::completion::stats" = type { i32 }

@.str = private unnamed_addr constant [25 x i8] c"(euf.completion :rounds \00", align 1
@.str.2 = private unnamed_addr constant [3 x i8] c")\0A\00", align 1

; Function Attrs: mustprogress uwtable
define hidden void @_ZN3euf10completion6reduceEv(ptr noundef nonnull align 8 dereferenceable(701) %this) unnamed_addr #5 align 2 {
entry:
  %this.addr = alloca ptr, align 8
  %rounds = alloca i32, align 4
  store ptr %this, ptr %this.addr, align 8
  %this1 = load ptr, ptr %this.addr, align 8
  %m_has_new_eq = getelementptr inbounds %"class.euf::completion", ptr %this1, i32 0, i32 16
  store i8 1, ptr %m_has_new_eq, align 4
  store i32 0, ptr %rounds, align 4
  br label %for.cond

for.cond:                                         ; preds = %for.inc, %entry
  %m_has_new_eq2 = getelementptr inbounds %"class.euf::completion", ptr %this1, i32 0, i32 16
  %0 = load i8, ptr %m_has_new_eq2, align 4
  %tobool = trunc i8 %0 to i1
  br i1 %tobool, label %land.lhs.true, label %land.end

land.lhs.true:                                    ; preds = %for.cond
  %1 = load i32, ptr %rounds, align 4
  %cmp = icmp ule i32 %1, 3
  br i1 %cmp, label %land.rhs, label %land.end

land.rhs:                                         ; preds = %land.lhs.true
  %m_fmls = getelementptr inbounds %class.dependent_expr_simplifier, ptr %this1, i32 0, i32 2
  %2 = load ptr, ptr %m_fmls, align 8
  %vtable = load ptr, ptr %2, align 8
  %vfn = getelementptr inbounds ptr, ptr %vtable, i64 6
  %3 = load ptr, ptr %vfn, align 8
  %call = call noundef zeroext i1 %3(ptr noundef nonnull align 8 dereferenceable(160) %2)
  %lnot = xor i1 %call, true
  br label %land.end

land.end:                                         ; preds = %land.rhs, %land.lhs.true, %for.cond
  %4 = phi i1 [ false, %land.lhs.true ], [ false, %for.cond ], [ %lnot, %land.rhs ]
  br i1 %4, label %for.body, label %for.end

for.body:                                         ; preds = %land.end
  %m_epoch = getelementptr inbounds %"class.euf::completion", ptr %this1, i32 0, i32 11
  %5 = load i32, ptr %m_epoch, align 8
  %inc = add i32 %5, 1
  store i32 %inc, ptr %m_epoch, align 8
  %m_has_new_eq3 = getelementptr inbounds %"class.euf::completion", ptr %this1, i32 0, i32 16
  store i8 0, ptr %m_has_new_eq3, align 4
  call void @_ZN3euf10completion10add_egraphEv(ptr noundef nonnull align 8 dereferenceable(701) %this1)
  call void @_ZN3euf10completion13map_canonicalEv(ptr noundef nonnull align 8 dereferenceable(701) %this1)
  call void @_ZN3euf10completion11read_egraphEv(ptr noundef nonnull align 8 dereferenceable(701) %this1)
  %call4 = call noundef i32 @_Z19get_verbosity_levelv()
  %cmp5 = icmp uge i32 %call4, 11
  br i1 %cmp5, label %if.then, label %if.end16

if.then:                                          ; preds = %for.body
  %call6 = call noundef zeroext i1 @_Z11is_threadedv()
  br i1 %call6, label %if.then7, label %if.else

if.then7:                                         ; preds = %if.then
  call void @_Z12verbose_lockv()
  %call8 = call noundef nonnull align 8 dereferenceable(8) ptr @_Z14verbose_streamv()
  %call9 = call noundef nonnull align 8 dereferenceable(8) ptr @_ZStlsISt11char_traitsIcEERSt13basic_ostreamIcT_ES5_PKc(ptr noundef nonnull align 8 dereferenceable(8) %call8, ptr noundef @.str)
  %6 = load i32, ptr %rounds, align 4
  %call10 = call noundef nonnull align 8 dereferenceable(8) ptr @_ZNSolsEj(ptr noundef nonnull align 8 dereferenceable(8) %call9, i32 noundef %6)
  %call11 = call noundef nonnull align 8 dereferenceable(8) ptr @_ZStlsISt11char_traitsIcEERSt13basic_ostreamIcT_ES5_PKc(ptr noundef nonnull align 8 dereferenceable(8) %call10, ptr noundef @.str.2)
  call void @_Z14verbose_unlockv()
  br label %if.end

if.else:                                          ; preds = %if.then
  %call12 = call noundef nonnull align 8 dereferenceable(8) ptr @_Z14verbose_streamv()
  %call13 = call noundef nonnull align 8 dereferenceable(8) ptr @_ZStlsISt11char_traitsIcEERSt13basic_ostreamIcT_ES5_PKc(ptr noundef nonnull align 8 dereferenceable(8) %call12, ptr noundef @.str)
  %7 = load i32, ptr %rounds, align 4
  %call14 = call noundef nonnull align 8 dereferenceable(8) ptr @_ZNSolsEj(ptr noundef nonnull align 8 dereferenceable(8) %call13, i32 noundef %7)
  %call15 = call noundef nonnull align 8 dereferenceable(8) ptr @_ZStlsISt11char_traitsIcEERSt13basic_ostreamIcT_ES5_PKc(ptr noundef nonnull align 8 dereferenceable(8) %call14, ptr noundef @.str.2)
  br label %if.end

if.end:                                           ; preds = %if.else, %if.then7
  br label %if.end16

if.end16:                                         ; preds = %if.end, %for.body
  br label %for.inc

for.inc:                                          ; preds = %if.end16
  %8 = load i32, ptr %rounds, align 4
  %inc17 = add i32 %8, 1
  store i32 %inc17, ptr %rounds, align 4
  br label %for.cond, !llvm.loop !4

for.end:                                          ; preds = %land.end
  ret void
}