; Function Attrs: mustprogress uwtable
define hidden void @_ZN3euf10completion6reduceEv(ptr noundef nonnull align 8 dereferenceable(701) %this) unnamed_addr #3 align 2 {
land.rhs.lr.ph:
  %m_has_new_eq = getelementptr inbounds i8, ptr %this, i64 700
  store i8 1, ptr %m_has_new_eq, align 4
  %m_fmls = getelementptr inbounds i8, ptr %this, i64 16
  %m_epoch = getelementptr inbounds i8, ptr %this, i64 664
  br label %land.rhs

land.rhs:                                         ; preds = %land.rhs.lr.ph, %for.inc
  %rounds.05 = phi i32 [ 0, %land.rhs.lr.ph ], [ %inc17, %for.inc ]
  %0 = load ptr, ptr %m_fmls, align 8
  %vtable = load ptr, ptr %0, align 8
  %vfn = getelementptr inbounds i8, ptr %vtable, i64 48
  %1 = load ptr, ptr %vfn, align 8
  %call = tail call noundef zeroext i1 %1(ptr noundef nonnull align 8 dereferenceable(160) %0)
  br i1 %call, label %for.end, label %for.body

for.body:                                         ; preds = %land.rhs
  %2 = load i32, ptr %m_epoch, align 8
  %inc = add i32 %2, 1
  store i32 %inc, ptr %m_epoch, align 8
  store i8 0, ptr %m_has_new_eq, align 4
  tail call void @_ZN3euf10completion10add_egraphEv(ptr noundef nonnull align 8 dereferenceable(701) %this)
  tail call void @_ZN3euf10completion13map_canonicalEv(ptr noundef nonnull align 8 dereferenceable(701) %this)
  tail call void @_ZN3euf10completion11read_egraphEv(ptr noundef nonnull align 8 dereferenceable(701) %this)
  %call4 = tail call noundef i32 @_Z19get_verbosity_levelv()
  %cmp5 = icmp ugt i32 %call4, 10
  br i1 %cmp5, label %if.then, label %for.inc

if.then:                                          ; preds = %for.body
  %call6 = tail call noundef zeroext i1 @_Z11is_threadedv()
  br i1 %call6, label %if.then7, label %if.else

if.then7:                                         ; preds = %if.then
  tail call void @_Z12verbose_lockv()
  %call8 = tail call noundef nonnull align 8 dereferenceable(8) ptr @_Z14verbose_streamv()
  %call9 = tail call noundef nonnull align 8 dereferenceable(8) ptr @_ZStlsISt11char_traitsIcEERSt13basic_ostreamIcT_ES5_PKc(ptr noundef nonnull align 8 dereferenceable(8) %call8, ptr noundef nonnull @.str)
  %call10 = tail call noundef nonnull align 8 dereferenceable(8) ptr @_ZNSolsEj(ptr noundef nonnull align 8 dereferenceable(8) %call9, i32 noundef %rounds.05)
  %call11 = tail call noundef nonnull align 8 dereferenceable(8) ptr @_ZStlsISt11char_traitsIcEERSt13basic_ostreamIcT_ES5_PKc(ptr noundef nonnull align 8 dereferenceable(8) %call10, ptr noundef nonnull @.str.2)
  tail call void @_Z14verbose_unlockv()
  br label %for.inc

if.else:                                          ; preds = %if.then
  %call12 = tail call noundef nonnull align 8 dereferenceable(8) ptr @_Z14verbose_streamv()
  %call13 = tail call noundef nonnull align 8 dereferenceable(8) ptr @_ZStlsISt11char_traitsIcEERSt13basic_ostreamIcT_ES5_PKc(ptr noundef nonnull align 8 dereferenceable(8) %call12, ptr noundef nonnull @.str)
  %call14 = tail call noundef nonnull align 8 dereferenceable(8) ptr @_ZNSolsEj(ptr noundef nonnull align 8 dereferenceable(8) %call13, i32 noundef %rounds.05)
  %call15 = tail call noundef nonnull align 8 dereferenceable(8) ptr @_ZStlsISt11char_traitsIcEERSt13basic_ostreamIcT_ES5_PKc(ptr noundef nonnull align 8 dereferenceable(8) %call14, ptr noundef nonnull @.str.2)
  br label %for.inc

for.inc:                                          ; preds = %for.body, %if.else, %if.then7
  %inc17 = add nuw nsw i32 %rounds.05, 1
  %3 = load i8, ptr %m_has_new_eq, align 4
  %4 = and i8 %3, 1
  %tobool = icmp ne i8 %4, 0
  %cmp = icmp ult i32 %rounds.05, 3
  %or.cond = select i1 %tobool, i1 %cmp, i1 false
  br i1 %or.cond, label %land.rhs, label %for.end, !llvm.loop !7

for.end:                                          ; preds = %land.rhs, %for.inc
  ret void
}